ccopy_reg
_reconstructor
p0
(cdeap.tools.support
Logbook
p1
c__builtin__
list
p2
(lp3
(dp4
S'std'
p5
cnumpy.core.multiarray
_reconstruct
p6
(cnumpy
ndarray
p7
(I0
tp8
S'b'
p9
tp10
Rp11
(I1
(I3
tp12
cnumpy
dtype
p13
(S'f8'
p14
I0
I1
tp15
Rp16
(I3
S'<'
p17
NNNI-1
I-1
I0
tp18
bI00
S'\x00\x00\x00\x00\x00\x00\x00\x00\xe8\x85\xa6\x9d\x13*\x1d@R\xf47\xe4\x84\x97R?'
p19
tp20
bsS'nevals'
p21
I20
sS'min'
p22
g6
(g7
(I0
tp23
g9
tp24
Rp25
(I1
(I3
tp26
g16
I00
S'\x00\x00\x00\x00\x00\x00\x00\x00\x00\x00\x00\x00\x00\x004@\x00\x00\x00\x00\x00\x00\x00\x00'
p27
tp28
bsS'max'
p29
g6
(g7
(I0
tp30
g9
tp31
Rp32
(I1
(I3
tp33
g16
I00
S'\x00\x00\x00\x00\x00\x00\x00\x00\x00\x00\x00\x00\x00\x80G@\xc1\xdc\xb7$\xb3Su?'
p34
tp35
bsS'pop_fitness'
p36
((F0.0
F24.0
F0.0
tp37
(F0.0
F37.0
F0.0
tp38
(F0.0
F20.0
F0.0
tp39
(F0.0
F37.0
F0.0
tp40
(F0.0
F33.0
F0.0
tp41
(F0.0
F33.0
F0.0
tp42
(F0.0
F31.0
F0.0
tp43
(F0.0
F30.0
F0.0
tp44
(F0.0
F20.0
F0.0
tp45
(F0.0
F23.0
F0.0
tp46
(F0.0
F42.0
F1.3600000000000003e-06
tp47
(F0.0
F45.0
F1.11e-06
tp48
(F0.0
F32.0
F3.79e-07
tp49
(F0.0
F34.0
F0.0052067754545454545
tp50
(F0.0
F34.0
F0.0
tp51
(F0.0
F39.0
F0.0
tp52
(F0.0
F39.0
F0.0
tp53
(F0.0
F47.0
F0.0
tp54
(F0.0
F31.0
F0.0
tp55
(F0.0
F33.0
F0.0
tp56
tp57
sS'avg'
p58
g6
(g7
(I0
tp59
g9
tp60
Rp61
(I1
(I3
tp62
g16
I00
S'\x00\x00\x00\x00\x00\x00\x00\x00\x9a\x99\x99\x99\x99\x99@@\xe8\xb84U&\x121?'
p63
tp64
bsS'gen'
p65
I0
sa(dp66
g5
g6
(g7
(I0
tp67
g9
tp68
Rp69
(I1
(I3
tp70
g16
I00
S'\x00\x00\x00\x00\x00\x00\x00\x00\xb1A\xd1\xdfP\xab\x1e@\xcc\xfa\x8eO`\xa9a?'
p71
tp72
bsg21
I20
sg22
g6
(g7
(I0
tp73
g9
tp74
Rp75
(I1
(I3
tp76
g16
I00
S'\x00\x00\x00\x00\x00\x00\x00\x00\x00\x00\x00\x00\x00\x004@\x00\x00\x00\x00\x00\x00\x00\x00'
p77
tp78
bsg29
g6
(g7
(I0
tp79
g9
tp80
Rp81
(I1
(I3
tp82
g16
I00
S'\x00\x00\x00\x00\x00\x00\x00\x00\x00\x00\x00\x00\x00\x80F@@QC\x95F>z?'
p83
tp84
bsg36
((F0.0
F20.0
F0.0
tp85
(F0.0
F20.0
F0.0
tp86
(F0.0
F23.0
F5.071428571428571e-07
tp87
(F0.0
F30.0
F0.006407046999999999
tp88
(F0.0
F30.0
F0.006407046999999999
tp89
(F0.0
F23.0
F0.0
tp90
(F0.0
F23.0
F0.0
tp91
(F0.0
F32.0
F3.79e-07
tp92
(F0.0
F34.0
F0.0052067754545454545
tp93
(F0.0
F24.0
F0.0
tp94
(F0.0
F40.0
F6.207692307692307e-07
tp95
(F0.0
F42.0
F1.3600000000000003e-06
tp96
(F0.0
F39.0
F4.4692307692307694e-07
tp97
(F0.0
F30.0
F0.0
tp98
(F0.0
F30.0
F0.0
tp99
(F0.0
F41.0
F5.153846153846154e-07
tp100
(F0.0
F45.0
F1.11e-06
tp101
(F0.0
F39.0
F3.4461538461538464e-07
tp102
(F0.0
F39.0
F3.4461538461538464e-07
tp103
(F0.0
F31.0
F0.0
tp104
tp105
sg58
g6
(g7
(I0
tp106
g9
tp107
Rp108
(I1
(I3
tp109
g16
I00
S'\x00\x00\x00\x00\x00\x00\x00\x00\x00\x00\x00\x00\x00\xc0?@*H^y\xdc\x88M?'
p110
tp111
bsg65
I1
sa(dp112
g5
g6
(g7
(I0
tp113
g9
tp114
Rp115
(I1
(I3
tp116
g16
I00
S"\x00\x00\x00\x00\x00\x00\x00\x00e\xb1\xeb'\xa5!\x1d@)}\x9e\x8b1\x8cj?"
p117
tp118
bsg21
I20
sg22
g6
(g7
(I0
tp119
g9
tp120
Rp121
(I1
(I3
tp122
g16
I00
S'\x00\x00\x00\x00\x00\x00\x00\x00\x00\x00\x00\x00\x00\x004@\x00\x00\x00\x00\x00\x00\x00\x00'
p123
tp124
bsg29
g6
(g7
(I0
tp125
g9
tp126
Rp127
(I1
(I3
tp128
g16
I00
S'\x00\x00\x00\x00\x00\x00\x00\x00\x00\x00\x00\x00\x00\x00E@q\xb3\xdf\xc8|L\x8a?'
p129
tp130
bsg36
((F0.0
F42.0
F0.012841200714285713
tp131
(F0.0
F20.0
F0.003185041666666667
tp132
(F0.0
F30.0
F0.005333121999999999
tp133
(F0.0
F30.0
F0.005333121999999999
tp134
(F0.0
F30.0
F0.005333121999999999
tp135
(F0.0
F20.0
F7.066666666666666e-07
tp136
(F0.0
F30.0
F0.002205878
tp137
(F0.0
F34.0
F0.0052067754545454545
tp138
(F0.0
F23.0
F5.071428571428571e-07
tp139
(F0.0
F20.0
F2.9166666666666664e-07
tp140
(F0.0
F27.0
F5.1e-07
tp141
(F0.0
F39.0
F0.0021460346153846155
tp142
(F0.0
F23.0
F3.928571428571429e-07
tp143
(F0.0
F20.0
F0.0
tp144
(F0.0
F20.0
F0.0
tp145
(F0.0
F30.0
F4.51e-07
tp146
(F0.0
F31.0
F5.009999999999999e-07
tp147
(F0.0
F39.0
F7.276923076923076e-07
tp148
(F0.0
F41.0
F0.0001059230769230769
tp149
(F0.0
F23.0
F0.0
tp150
tp151
sg58
g6
(g7
(I0
tp152
g9
tp153
Rp154
(I1
(I3
tp155
g16
I00
S'\x00\x00\x00\x00\x00\x00\x00\x00\x9a\x99\x99\x99\x99\x99<@FU\xcb\x0b\xf7\x13a?'
p156
tp157
bsg65
I2
sa(dp158
g5
g6
(g7
(I0
tp159
g9
tp160
Rp161
(I1
(I3
tp162
g16
I00
S'\x00\x00\x00\x00\x00\x00\x00\x00\xfd\xbc\x87\xc1W\xc6\x17@v\xfe\x18\xb9\xd6\xb7l?'
p163
tp164
bsg21
I20
sg22
g6
(g7
(I0
tp165
g9
tp166
Rp167
(I1
(I3
tp168
g16
I00
S'\x00\x00\x00\x00\x00\x00\x00\x00\x00\x00\x00\x00\x00\x004@\x00\x00\x00\x00\x00\x00\x00\x00'
p169
tp170
bsg29
g6
(g7
(I0
tp171
g9
tp172
Rp173
(I1
(I3
tp174
g16
I00
S'\x00\x00\x00\x00\x00\x00\x00\x00\x00\x00\x00\x00\x00\x00E@q\xb3\xdf\xc8|L\x8a?'
p175
tp176
bsg36
((F0.0
F42.0
F0.012841200714285713
tp177
(F0.0
F30.0
F0.007685047
tp178
(F0.0
F20.0
F7.066666666666666e-07
tp179
(F0.0
F27.0
F0.004857848888888889
tp180
(F0.0
F30.0
F0.005333121999999999
tp181
(F0.0
F30.0
F0.005333121999999999
tp182
(F0.0
F30.0
F0.005333121999999999
tp183
(F0.0
F20.0
F3.516666666666667e-07
tp184
(F0.0
F23.0
F5.071428571428571e-07
tp185
(F0.0
F27.0
F6.8e-07
tp186
(F0.0
F27.0
F6.8e-07
tp187
(F0.0
F30.0
F0.002205878
tp188
(F0.0
F34.0
F0.0052067754545454545
tp189
(F0.0
F23.0
F3.928571428571429e-07
tp190
(F0.0
F20.0
F0.0
tp191
(F0.0
F20.0
F0.0
tp192
(F0.0
F20.0
F0.0
tp193
(F0.0
F20.0
F0.0
tp194
(F0.0
F20.0
F0.0
tp195
(F0.0
F20.0
F0.0
tp196
tp197
sg58
g6
(g7
(I0
tp198
g9
tp199
Rp200
(I1
(I3
tp201
g16
I00
S'\x00\x00\x00\x00\x00\x00\x00\x00fffff\xa69@\xe6\xf7\xa2\xd7\xfd\xfcc?'
p202
tp203
bsg65
I3
sa(dp204
g5
g6
(g7
(I0
tp205
g9
tp206
Rp207
(I1
(I3
tp208
g16
I00
S'\x00\x00\x00\x00\x00\x00\x00\x00\x97\x95\x8e\xbb|H\x13@\xf3\xe7\xeb+\xe1Ne?'
p209
tp210
bsg21
I20
sg22
g6
(g7
(I0
tp211
g9
tp212
Rp213
(I1
(I3
tp214
g16
I00
S'\x00\x00\x00\x00\x00\x00\x00\x00\x00\x00\x00\x00\x00\x004@\x00\x00\x00\x00\x00\x00\x00\x00'
p215
tp216
bsg29
g6
(g7
(I0
tp217
g9
tp218
Rp219
(I1
(I3
tp220
g16
I00
S'\x00\x00\x00\x00\x00\x00\x00\x00\x00\x00\x00\x00\x00\x00A@\xc0\x14\x88\x18[z\x7f?'
p221
tp222
bsg36
((F0.0
F27.0
F0.004857848888888889
tp223
(F0.0
F30.0
F0.007685047
tp224
(F0.0
F20.0
F7.066666666666666e-07
tp225
(F0.0
F30.0
F0.005333121999999999
tp226
(F0.0
F30.0
F0.005333121999999999
tp227
(F0.0
F30.0
F0.005333121999999999
tp228
(F0.0
F23.0
F5.071428571428571e-07
tp229
(F0.0
F20.0
F3.516666666666667e-07
tp230
(F0.0
F27.0
F6.8e-07
tp231
(F0.0
F27.0
F6.8e-07
tp232
(F0.0
F30.0
F0.002205878
tp233
(F0.0
F34.0
F0.0052067754545454545
tp234
(F0.0
F20.0
F0.0
tp235
(F0.0
F20.0
F0.0
tp236
(F0.0
F20.0
F0.0
tp237
(F0.0
F20.0
F0.0
tp238
(F0.0
F20.0
F0.0
tp239
(F0.0
F20.0
F0.0
tp240
(F0.0
F20.0
F0.0
tp241
(F0.0
F20.0
F0.0
tp242
tp243
sg58
g6
(g7
(I0
tp244
g9
tp245
Rp246
(I1
(I3
tp247
g16
I00
S'\x00\x00\x00\x00\x00\x00\x00\x00ffffff8@\xfd\xdd"\xe1\xe7t]?'
p248
tp249
bsg65
I4
sa(dp250
g5
g6
(g7
(I0
tp251
g9
tp252
Rp253
(I1
(I3
tp254
g16
I00
S'\x00\x00\x00\x00\x00\x00\x00\x00\xfd\xe4\x87J\x85m\x13@^1jV2ie?'
p255
tp256
bsg21
I20
sg22
g6
(g7
(I0
tp257
g9
tp258
Rp259
(I1
(I3
tp260
g16
I00
S'\x00\x00\x00\x00\x00\x00\x00\x00\x00\x00\x00\x00\x00\x004@\x00\x00\x00\x00\x00\x00\x00\x00'
p261
tp262
bsg29
g6
(g7
(I0
tp263
g9
tp264
Rp265
(I1
(I3
tp266
g16
I00
S'\x00\x00\x00\x00\x00\x00\x00\x00\x00\x00\x00\x00\x00\x00A@\xc0\x14\x88\x18[z\x7f?'
p267
tp268
bsg36
((F0.0
F27.0
F0.004857848888888889
tp269
(F0.0
F30.0
F0.007685047
tp270
(F0.0
F20.0
F7.066666666666666e-07
tp271
(F0.0
F30.0
F0.005075136
tp272
(F0.0
F30.0
F0.005075136
tp273
(F0.0
F30.0
F0.005075136
tp274
(F0.0
F30.0
F0.005075136
tp275
(F0.0
F34.0
F0.0052067754545454545
tp276
(F0.0
F23.0
F5.071428571428571e-07
tp277
(F0.0
F20.0
F3.8499999999999997e-07
tp278
(F0.0
F27.0
F6.8e-07
tp279
(F0.0
F27.0
F6.8e-07
tp280
(F0.0
F30.0
F0.002205878
tp281
(F0.0
F20.0
F3.516666666666667e-07
tp282
(F0.0
F20.0
F0.0
tp283
(F0.0
F20.0
F0.0
tp284
(F0.0
F20.0
F0.0
tp285
(F0.0
F20.0
F0.0
tp286
(F0.0
F20.0
F0.0
tp287
(F0.0
F20.0
F0.0
tp288
tp289
sg58
g6
(g7
(I0
tp290
g9
tp291
Rp292
(I1
(I3
tp293
g16
I00
S'\x00\x00\x00\x00\x00\x00\x00\x00fffff\xe68@\x126k$\x81}`?'
p294
tp295
bsg65
I5
sa(dp296
g5
g6
(g7
(I0
tp297
g9
tp298
Rp299
(I1
(I3
tp300
g16
I00
S'\x00\x00\x00\x00\x00\x00\x00\x00\xfc\xe4\x87J\x85m\x13@\xd7\x96\x12\xf4\x8b\xace?'
p301
tp302
bsg21
I20
sg22
g6
(g7
(I0
tp303
g9
tp304
Rp305
(I1
(I3
tp306
g16
I00
S'\x00\x00\x00\x00\x00\x00\x00\x00\x00\x00\x00\x00\x00\x004@\x00\x00\x00\x00\x00\x00\x00\x00'
p307
tp308
bsg29
g6
(g7
(I0
tp309
g9
tp310
Rp311
(I1
(I3
tp312
g16
I00
S'\x00\x00\x00\x00\x00\x00\x00\x00\x00\x00\x00\x00\x00\x00A@\xc0\x14\x88\x18[z\x7f?'
p313
tp314
bsg36
((F0.0
F27.0
F0.004954663333333333
tp315
(F0.0
F30.0
F0.007685047
tp316
(F0.0
F20.0
F7.066666666666666e-07
tp317
(F0.0
F27.0
F0.004857848888888889
tp318
(F0.0
F30.0
F0.005075136
tp319
(F0.0
F30.0
F0.005075136
tp320
(F0.0
F30.0
F0.005075136
tp321
(F0.0
F30.0
F0.005075136
tp322
(F0.0
F34.0
F0.0052067754545454545
tp323
(F0.0
F20.0
F3.516666666666667e-07
tp324
(F0.0
F30.0
F0.002205878
tp325
(F0.0
F20.0
F0.0
tp326
(F0.0
F27.0
F6.8e-07
tp327
(F0.0
F27.0
F6.8e-07
tp328
(F0.0
F20.0
F0.0
tp329
(F0.0
F20.0
F0.0
tp330
(F0.0
F20.0
F0.0
tp331
(F0.0
F20.0
F0.0
tp332
(F0.0
F20.0
F0.0
tp333
(F0.0
F20.0
F0.0
tp334
tp335
sg58
g6
(g7
(I0
tp336
g9
tp337
Rp338
(I1
(I3
tp339
g16
I00
S'\x00\x00\x00\x00\x00\x00\x00\x00\x9a\x99\x99\x99\x99\x199@\xcc\xa4\xd3\xec\xf1\x84b?'
p340
tp341
bsg65
I6
sa(dp342
g5
g6
(g7
(I0
tp343
g9
tp344
Rp345
(I1
(I3
tp346
g16
I00
S'\x00\x00\x00\x00\x00\x00\x00\x00\xfc\xe4\x87J\x85m\x13@\xd7\x96\x12\xf4\x8b\xace?'
p347
tp348
bsg21
I20
sg22
g6
(g7
(I0
tp349
g9
tp350
Rp351
(I1
(I3
tp352
g16
I00
S'\x00\x00\x00\x00\x00\x00\x00\x00\x00\x00\x00\x00\x00\x004@\x00\x00\x00\x00\x00\x00\x00\x00'
p353
tp354
bsg29
g6
(g7
(I0
tp355
g9
tp356
Rp357
(I1
(I3
tp358
g16
I00
S'\x00\x00\x00\x00\x00\x00\x00\x00\x00\x00\x00\x00\x00\x00A@\xc0\x14\x88\x18[z\x7f?'
p359
tp360
bsg36
((F0.0
F27.0
F0.004954663333333333
tp361
(F0.0
F30.0
F0.007685047
tp362
(F0.0
F20.0
F7.066666666666666e-07
tp363
(F0.0
F27.0
F0.004857848888888889
tp364
(F0.0
F30.0
F0.005075136
tp365
(F0.0
F30.0
F0.005075136
tp366
(F0.0
F30.0
F0.005075136
tp367
(F0.0
F30.0
F0.005075136
tp368
(F0.0
F34.0
F0.0052067754545454545
tp369
(F0.0
F20.0
F3.516666666666667e-07
tp370
(F0.0
F30.0
F0.002205878
tp371
(F0.0
F20.0
F0.0
tp372
(F0.0
F20.0
F0.0
tp373
(F0.0
F27.0
F6.8e-07
tp374
(F0.0
F27.0
F6.8e-07
tp375
(F0.0
F20.0
F0.0
tp376
(F0.0
F20.0
F0.0
tp377
(F0.0
F20.0
F0.0
tp378
(F0.0
F20.0
F0.0
tp379
(F0.0
F20.0
F0.0
tp380
tp381
sg58
g6
(g7
(I0
tp382
g9
tp383
Rp384
(I1
(I3
tp385
g16
I00
S'\x00\x00\x00\x00\x00\x00\x00\x00\x9a\x99\x99\x99\x99\x199@\xcc\xa4\xd3\xec\xf1\x84b?'
p386
tp387
bsg65
I7
sa(dp388
g5
g6
(g7
(I0
tp389
g9
tp390
Rp391
(I1
(I3
tp392
g16
I00
S'\x00\x00\x00\x00\x00\x00\x00\x00\xec\x07\x81_\xa5\x90\x10@+:\xab\x9c\xd7\xfdb?'
p393
tp394
bsg21
I20
sg22
g6
(g7
(I0
tp395
g9
tp396
Rp397
(I1
(I3
tp398
g16
I00
S'\x00\x00\x00\x00\x00\x00\x00\x00\x00\x00\x00\x00\x00\x004@\x00\x00\x00\x00\x00\x00\x00\x00'
p399
tp400
bsg29
g6
(g7
(I0
tp401
g9
tp402
Rp403
(I1
(I3
tp404
g16
I00
S'\x00\x00\x00\x00\x00\x00\x00\x00\x00\x00\x00\x00\x00\x00A@\xc0\x14\x88\x18[z\x7f?'
p405
tp406
bsg36
((F0.0
F27.0
F0.004954663333333333
tp407
(F0.0
F20.0
F3.8833333333333336e-07
tp408
(F0.0
F30.0
F0.007685047
tp409
(F0.0
F27.0
F0.004857848888888889
tp410
(F0.0
F20.0
F3.516666666666667e-07
tp411
(F0.0
F34.0
F0.0052067754545454545
tp412
(F0.0
F27.0
F0.00062695
tp413
(F0.0
F25.0
F3.3875000000000004e-07
tp414
(F0.0
F20.0
F0.0
tp415
(F0.0
F20.0
F0.0
tp416
(F0.0
F20.0
F0.0
tp417
(F0.0
F20.0
F0.0
tp418
(F0.0
F20.0
F0.0
tp419
(F0.0
F20.0
F0.0
tp420
(F0.0
F20.0
F0.0
tp421
(F0.0
F20.0
F0.0
tp422
(F0.0
F20.0
F0.0
tp423
(F0.0
F20.0
F0.0
tp424
(F0.0
F20.0
F0.0
tp425
(F0.0
F20.0
F0.0
tp426
tp427
sg58
g6
(g7
(I0
tp428
g9
tp429
Rp430
(I1
(I3
tp431
g16
I00
S'\x00\x00\x00\x00\x00\x00\x00\x00\x00\x00\x00\x00\x00\x806@\xc7\xec#\xb9&\x1dS?'
p432
tp433
bsg65
I8
sa(dp434
g5
g6
(g7
(I0
tp435
g9
tp436
Rp437
(I1
(I3
tp438
g16
I00
S'\x00\x00\x00\x00\x00\x00\x00\x00\x06`\xafS\xd4\x8a\x17@J\x8d\xa9\xc2\xcf~c?'
p439
tp440
bsg21
I20
sg22
g6
(g7
(I0
tp441
g9
tp442
Rp443
(I1
(I3
tp444
g16
I00
S'\x00\x00\x00\x00\x00\x00\x00\x00\x00\x00\x00\x00\x00\x004@\x00\x00\x00\x00\x00\x00\x00\x00'
p445
tp446
bsg29
g6
(g7
(I0
tp447
g9
tp448
Rp449
(I1
(I3
tp450
g16
I00
S'\x00\x00\x00\x00\x00\x00\x00\x00\x00\x00\x00\x00\x00\x00E@\xc0\x14\x88\x18[z\x7f?'
p451
tp452
bsg36
((F0.0
F27.0
F0.004954663333333333
tp453
(F0.0
F20.0
F3.8833333333333336e-07
tp454
(F0.0
F30.0
F0.007685047
tp455
(F0.0
F27.0
F0.004857848888888889
tp456
(F0.0
F20.0
F3.516666666666667e-07
tp457
(F0.0
F34.0
F0.0052067754545454545
tp458
(F0.0
F27.0
F0.00062695
tp459
(F0.0
F42.0
F0.003983121428571428
tp460
(F0.0
F25.0
F3.3875000000000004e-07
tp461
(F0.0
F20.0
F0.0
tp462
(F0.0
F20.0
F0.0
tp463
(F0.0
F20.0
F0.0
tp464
(F0.0
F20.0
F0.0
tp465
(F0.0
F20.0
F0.0
tp466
(F0.0
F20.0
F0.0
tp467
(F0.0
F20.0
F0.0
tp468
(F0.0
F20.0
F0.0
tp469
(F0.0
F20.0
F0.0
tp470
(F0.0
F20.0
F0.0
tp471
(F0.0
F20.0
F0.0
tp472
tp473
sg58
g6
(g7
(I0
tp474
g9
tp475
Rp476
(I1
(I3
tp477
g16
I00
S'\x00\x00\x00\x00\x00\x00\x00\x00\x9a\x99\x99\x99\x99\x997@\xec\xb55\xedx`V?'
p478
tp479
bsg65
I9
sa(dp480
g5
g6
(g7
(I0
tp481
g9
tp482
Rp483
(I1
(I3
tp484
g16
I00
S'\x00\x00\x00\x00\x00\x00\x00\x00?\xdc;$\x8d\xd5\x16@\x9c\x9b`\x13-\xa9[?'
p485
tp486
bsg21
I20
sg22
g6
(g7
(I0
tp487
g9
tp488
Rp489
(I1
(I3
tp490
g16
I00
S'\x00\x00\x00\x00\x00\x00\x00\x00\x00\x00\x00\x00\x00\x004@\x00\x00\x00\x00\x00\x00\x00\x00'
p491
tp492
bsg29
g6
(g7
(I0
tp493
g9
tp494
Rp495
(I1
(I3
tp496
g16
I00
S'\x00\x00\x00\x00\x00\x00\x00\x00\x00\x00\x00\x00\x00\x00E@\xc1\xdc\xb7$\xb3Su?'
p497
tp498
bsg36
((F0.0
F27.0
F0.004954663333333333
tp499
(F0.0
F20.0
F3.8833333333333336e-07
tp500
(F0.0
F34.0
F0.0052067754545454545
tp501
(F0.0
F27.0
F0.00062695
tp502
(F0.0
F20.0
F3.516666666666667e-07
tp503
(F0.0
F42.0
F0.003983121428571428
tp504
(F0.0
F25.0
F3.3875000000000004e-07
tp505
(F0.0
F20.0
F0.0
tp506
(F0.0
F20.0
F0.0
tp507
(F0.0
F20.0
F0.0
tp508
(F0.0
F20.0
F0.0
tp509
(F0.0
F20.0
F0.0
tp510
(F0.0
F20.0
F0.0
tp511
(F0.0
F20.0
F0.0
tp512
(F0.0
F20.0
F0.0
tp513
(F0.0
F20.0
F0.0
tp514
(F0.0
F20.0
F0.0
tp515
(F0.0
F20.0
F0.0
tp516
(F0.0
F20.0
F0.0
tp517
(F0.0
F20.0
F0.0
tp518
tp519
sg58
g6
(g7
(I0
tp520
g9
tp521
Rp522
(I1
(I3
tp523
g16
I00
S'\x00\x00\x00\x00\x00\x00\x00\x00\x00\x00\x00\x00\x00\xc06@\x141\x86\xa9\x124H?'
p524
tp525
bsg65
I10
sa(dp526
g5
g6
(g7
(I0
tp527
g9
tp528
Rp529
(I1
(I3
tp530
g16
I00
S"\x00\x00\x00\x00\x00\x00\x00\x00uL\x9d\xc5R'\x1e@'\x93\xf8\xca\x0f\xb3[?"
p531
tp532
bsg21
I20
sg22
g6
(g7
(I0
tp533
g9
tp534
Rp535
(I1
(I3
tp536
g16
I00
S'\x00\x00\x00\x00\x00\x00\x00\x00\x00\x00\x00\x00\x00\x004@\xa5\xd8\x8c3R`\x97>'
p537
tp538
bsg29
g6
(g7
(I0
tp539
g9
tp540
Rp541
(I1
(I3
tp542
g16
I00
S'\x00\x00\x00\x00\x00\x00\x00\x00\x00\x00\x00\x00\x00\x80G@\xc1\xdc\xb7$\xb3Su?'
p543
tp544
bsg36
((F0.0
F27.0
F0.004954663333333333
tp545
(F0.0
F20.0
F1.3433333333333335e-06
tp546
(F0.0
F34.0
F0.0052067754545454545
tp547
(F0.0
F22.0
F0.0016630014285714287
tp548
(F0.0
F20.0
F1.1250000000000002e-06
tp549
(F0.0
F42.0
F0.003983121428571428
tp550
(F0.0
F27.0
F0.00062695
tp551
(F0.0
F20.0
F4.533333333333333e-07
tp552
(F0.0
F27.0
F4.977777777777777e-07
tp553
(F0.0
F28.0
F5.666666666666667e-07
tp554
(F0.0
F20.0
F4.4833333333333336e-07
tp555
(F0.0
F47.0
F5.426666666666667e-07
tp556
(F0.0
F20.0
F3.8833333333333336e-07
tp557
(F0.0
F26.0
F4.175e-07
tp558
(F0.0
F27.0
F4.222222222222222e-07
tp559
(F0.0
F20.0
F3.75e-07
tp560
(F0.0
F20.0
F3.516666666666667e-07
tp561
(F0.0
F20.0
F3.4833333333333337e-07
tp562
(F0.0
F20.0
F3.4833333333333337e-07
tp563
(F0.0
F20.0
F3.4833333333333337e-07
tp564
tp565
sg58
g6
(g7
(I0
tp566
g9
tp567
Rp568
(I1
(I3
tp569
g16
I00
S'\x00\x00\x00\x00\x00\x00\x00\x00\x9a\x99\x99\x99\x99Y9@C\xc1\xc9\xc1z\xf0J?'
p570
tp571
bsg65
I11
sa(dp572
g5
g6
(g7
(I0
tp573
g9
tp574
Rp575
(I1
(I3
tp576
g16
I00
S'\x00\x00\x00\x00\x00\x00\x00\x00\xf5\t\xd5\\\xf9\xf5\x16@\x00\x93j\x9bIT]?'
p577
tp578
bsg21
I20
sg22
g6
(g7
(I0
tp579
g9
tp580
Rp581
(I1
(I3
tp582
g16
I00
S'\x00\x00\x00\x00\x00\x00\x00\x00\x00\x00\x00\x00\x00\x004@\xd7\x88MQ\x1b\xc2\x9e>'
p583
tp584
bsg29
g6
(g7
(I0
tp585
g9
tp586
Rp587
(I1
(I3
tp588
g16
I00
S'\x00\x00\x00\x00\x00\x00\x00\x00\x00\x00\x00\x00\x00\x00E@\xc1\xdc\xb7$\xb3Su?'
p589
tp590
bsg36
((F0.0
F27.0
F0.004954663333333333
tp591
(F0.0
F34.0
F0.0052067754545454545
tp592
(F0.0
F20.0
F8.175e-06
tp593
(F0.0
F22.0
F0.0016630014285714287
tp594
(F0.0
F27.0
F0.003704493333333334
tp595
(F0.0
F42.0
F0.003983121428571428
tp596
(F0.0
F20.0
F1.4033333333333332e-06
tp597
(F0.0
F27.0
F0.00062695
tp598
(F0.0
F20.0
F1.3433333333333335e-06
tp599
(F0.0
F20.0
F1.1250000000000002e-06
tp600
(F0.0
F20.0
F1.1249999999999998e-06
tp601
(F0.0
F20.0
F9.249999999999999e-07
tp602
(F0.0
F20.0
F6.566666666666666e-07
tp603
(F0.0
F20.0
F6.3e-07
tp604
(F0.0
F20.0
F6.3e-07
tp605
(F0.0
F28.0
F5.666666666666667e-07
tp606
(F0.0
F23.0
F5.157142857142857e-07
tp607
(F0.0
F20.0
F4.5833333333333327e-07
tp608
(F0.0
F20.0
F4.5833333333333327e-07
tp609
(F0.0
F20.0
F4.5833333333333327e-07
tp610
tp611
sg58
g6
(g7
(I0
tp612
g9
tp613
Rp614
(I1
(I3
tp615
g16
I00
S'\x00\x00\x00\x00\x00\x00\x00\x00\x00\x00\x00\x00\x00\x807@N%b<T\x83P?'
p616
tp617
bsg65
I12
sa(dp618
g5
g6
(g7
(I0
tp619
g9
tp620
Rp621
(I1
(I3
tp622
g16
I00
S'\x00\x00\x00\x00\x00\x00\x00\x00I\x88g\xca\xb3\xe4\x1b@L\xeb\xc1R\xc3\xa5]?'
p623
tp624
bsg21
I20
sg22
g6
(g7
(I0
tp625
g9
tp626
Rp627
(I1
(I3
tp628
g16
I00
S'\x00\x00\x00\x00\x00\x00\x00\x00\x00\x00\x00\x00\x00\x004@\t\xca\xa7\xa6\xa8#\xa5>'
p629
tp630
bsg29
g6
(g7
(I0
tp631
g9
tp632
Rp633
(I1
(I3
tp634
g16
I00
S'\x00\x00\x00\x00\x00\x00\x00\x00\x00\x00\x00\x00\x00\x00E@\xc1\xdc\xb7$\xb3Su?'
p635
tp636
bsg36
((F0.0
F27.0
F0.004954663333333333
tp637
(F0.0
F34.0
F0.0052067754545454545
tp638
(F0.0
F20.0
F0.0024400833333333336
tp639
(F0.0
F27.0
F0.003704493333333334
tp640
(F0.0
F42.0
F0.003983121428571428
tp641
(F0.0
F20.0
F2.6799999999999998e-06
tp642
(F0.0
F21.0
F0.0013360957142857144
tp643
(F0.0
F22.0
F0.0016630014285714287
tp644
(F0.0
F42.0
F0.0031725521428571427
tp645
(F0.0
F20.0
F1.4866666666666665e-06
tp646
(F0.0
F27.0
F0.00062695
tp647
(F0.0
F20.0
F1.4033333333333332e-06
tp648
(F0.0
F20.0
F1.3433333333333335e-06
tp649
(F0.0
F20.0
F1.1250000000000002e-06
tp650
(F0.0
F20.0
F1.1249999999999998e-06
tp651
(F0.0
F20.0
F9.249999999999999e-07
tp652
(F0.0
F20.0
F6.566666666666666e-07
tp653
(F0.0
F21.0
F7.614285714285714e-07
tp654
(F0.0
F20.0
F6.416666666666667e-07
tp655
(F0.0
F20.0
F6.3e-07
tp656
tp657
sg58
g6
(g7
(I0
tp658
g9
tp659
Rp660
(I1
(I3
tp661
g16
I00
S'\x00\x00\x00\x00\x00\x00\x00\x00fffff&8@=\x92\xe6\xc7c3V?'
p662
tp663
bsg65
I13
sa(dp664
g5
g6
(g7
(I0
tp665
g9
tp666
Rp667
(I1
(I3
tp668
g16
I00
S"\x00\x00\x00\x00\x00\x00\x00\x00\x8c!|'\xec# @/{\x1a\x0f\xb0'a?"
p669
tp670
bsg21
I20
sg22
g6
(g7
(I0
tp671
g9
tp672
Rp673
(I1
(I3
tp674
g16
I00
S'\x00\x00\x00\x00\x00\x00\x00\x00\x00\x00\x00\x00\x00\x004@\x98\xac\x1c\xec\xdf\x87\xa5>'
p675
tp676
bsg29
g6
(g7
(I0
tp677
g9
tp678
Rp679
(I1
(I3
tp680
g16
I00
S"\x00\x00\x00\x00\x00\x00\x00\x00\x00\x00\x00\x00\x00\x00F@\xd8'Y\xa5\x0e\xcbu?"
p681
tp682
bsg36
((F0.0
F27.0
F0.004954663333333333
tp683
(F0.0
F44.0
F0.005320603571428571
tp684
(F0.0
F34.0
F0.0052067754545454545
tp685
(F0.0
F20.0
F0.0024400833333333336
tp686
(F0.0
F27.0
F0.0048522899999999996
tp687
(F0.0
F20.0
F2.6799999999999998e-06
tp688
(F0.0
F22.0
F0.0016630014285714287
tp689
(F0.0
F27.0
F0.003704493333333334
tp690
(F0.0
F42.0
F0.003983121428571428
tp691
(F0.0
F20.0
F1.4866666666666665e-06
tp692
(F0.0
F27.0
F0.00062695
tp693
(F0.0
F42.0
F0.0031725521428571427
tp694
(F0.0
F20.0
F1.4033333333333332e-06
tp695
(F0.0
F20.0
F1.3433333333333335e-06
tp696
(F0.0
F20.0
F1.1250000000000002e-06
tp697
(F0.0
F20.0
F1.1249999999999998e-06
tp698
(F0.0
F20.0
F9.249999999999999e-07
tp699
(F0.0
F20.0
F6.566666666666666e-07
tp700
(F0.0
F21.0
F7.614285714285714e-07
tp701
(F0.0
F20.0
F6.416666666666667e-07
tp702
tp703
sg58
g6
(g7
(I0
tp704
g9
tp705
Rp706
(I1
(I3
tp707
g16
I00
S'\x00\x00\x00\x00\x00\x00\x00\x00fffff\xa69@\x93\x143\xeewp]?'
p708
tp709
bsg65
I14
sa(dp710
g5
g6
(g7
(I0
tp711
g9
tp712
Rp713
(I1
(I3
tp714
g16
I00
S'\x00\x00\x00\x00\x00\x00\x00\x00{\xcdk\xe0\xfe\x05 @\x14ZP\xa9\xb6\xd0`?'
p715
tp716
bsg21
I20
sg22
g6
(g7
(I0
tp717
g9
tp718
Rp719
(I1
(I3
tp720
g16
I00
S'\x00\x00\x00\x00\x00\x00\x00\x00\x00\x00\x00\x00\x00\x004@\xe0\xcfiE\xb9\x08\xa6>'
p721
tp722
bsg29
g6
(g7
(I0
tp723
g9
tp724
Rp725
(I1
(I3
tp726
g16
I00
S"\x00\x00\x00\x00\x00\x00\x00\x00\x00\x00\x00\x00\x00\x00F@\xd8'Y\xa5\x0e\xcbu?"
p727
tp728
bsg36
((F0.0
F27.0
F0.004954663333333333
tp729
(F0.0
F44.0
F0.005320603571428571
tp730
(F0.0
F34.0
F0.0052067754545454545
tp731
(F0.0
F20.0
F0.0024400833333333336
tp732
(F0.0
F27.0
F0.0048522899999999996
tp733
(F0.0
F20.0
F2.6799999999999998e-06
tp734
(F0.0
F22.0
F0.001984417142857143
tp735
(F0.0
F22.0
F0.001984417142857143
tp736
(F0.0
F27.0
F0.003704493333333334
tp737
(F0.0
F42.0
F0.003983121428571428
tp738
(F0.0
F20.0
F1.4866666666666665e-06
tp739
(F0.0
F27.0
F0.00062695
tp740
(F0.0
F42.0
F0.0031725521428571427
tp741
(F0.0
F20.0
F1.4033333333333332e-06
tp742
(F0.0
F20.0
F1.3433333333333335e-06
tp743
(F0.0
F20.0
F1.1250000000000002e-06
tp744
(F0.0
F20.0
F1.1249999999999998e-06
tp745
(F0.0
F20.0
F9.249999999999999e-07
tp746
(F0.0
F20.0
F6.566666666666666e-07
tp747
(F0.0
F21.0
F7.614285714285714e-07
tp748
tp749
sg58
g6
(g7
(I0
tp750
g9
tp751
Rp752
(I1
(I3
tp753
g16
I00
S'\x00\x00\x00\x00\x00\x00\x00\x00\x00\x00\x00\x00\x00\xc09@\xd6=\xad\xf0\xe6S_?'
p754
tp755
bsg65
I15
sa(dp756
g5
g6
(g7
(I0
tp757
g9
tp758
Rp759
(I1
(I3
tp760
g16
I00
S'\x00\x00\x00\x00\x00\x00\x00\x005<Y\xfb\xcd\xef"@V\xdc{\xcc\x922p?'
p761
tp762
bsg21
I20
sg22
g6
(g7
(I0
tp763
g9
tp764
Rp765
(I1
(I3
tp766
g16
I00
S'\x00\x00\x00\x00\x00\x00\x00\x00\x00\x00\x00\x00\x00\x004@\x00\x00\x00\x00\x00\x00\x00\x00'
p767
tp768
bsg29
g6
(g7
(I0
tp769
g9
tp770
Rp771
(I1
(I3
tp772
g16
I00
S'\x00\x00\x00\x00\x00\x00\x00\x00\x00\x00\x00\x00\x00\x80F@~\t\x8aS_\x0b\x90?'
p773
tp774
bsg36
((F0.0
F44.0
F0.015668382142857144
tp775
(F0.0
F20.0
F0.009811889999999998
tp776
(F0.0
F27.0
F0.004954663333333333
tp777
(F0.0
F44.0
F0.005320603571428571
tp778
(F0.0
F34.0
F0.0052067754545454545
tp779
(F0.0
F20.0
F0.0024400833333333336
tp780
(F0.0
F27.0
F0.0048522899999999996
tp781
(F0.0
F20.0
F1.4866666666666665e-06
tp782
(F0.0
F27.0
F0.003704493333333334
tp783
(F0.0
F42.0
F0.003983121428571428
tp784
(F0.0
F20.0
F1.4033333333333332e-06
tp785
(F0.0
F27.0
F0.00062695
tp786
(F0.0
F42.0
F0.0031725521428571427
tp787
(F0.0
F20.0
F1.1250000000000002e-06
tp788
(F0.0
F30.0
F2.564e-06
tp789
(F0.0
F45.0
F3.642666666666667e-06
tp790
(F0.0
F20.0
F1.1249999999999998e-06
tp791
(F0.0
F21.0
F7.614285714285714e-07
tp792
(F0.0
F20.0
F0.0
tp793
(F0.0
F20.0
F0.0
tp794
tp795
sg58
g6
(g7
(I0
tp796
g9
tp797
Rp798
(I1
(I3
tp799
g16
I00
S'\x00\x00\x00\x00\x00\x00\x00\x00\x00\x00\x00\x00\x00\x80<@\xb6cL\xe2\xa6yh?'
p800
tp801
bsg65
I16
sa(dp802
g5
g6
(g7
(I0
tp803
g9
tp804
Rp805
(I1
(I3
tp806
g16
I00
S'\x00\x00\x00\x00\x00\x00\x00\x00_\xa3\xe5)\xc6\xa3"@\x13C\xf04\x0c\xd2o?'
p807
tp808
bsg21
I20
sg22
g6
(g7
(I0
tp809
g9
tp810
Rp811
(I1
(I3
tp812
g16
I00
S'\x00\x00\x00\x00\x00\x00\x00\x00\x00\x00\x00\x00\x00\x004@>\xab\xcc\x94\xd6\xdf\xb2>'
p813
tp814
bsg29
g6
(g7
(I0
tp815
g9
tp816
Rp817
(I1
(I3
tp818
g16
I00
S'\x00\x00\x00\x00\x00\x00\x00\x00\x00\x00\x00\x00\x00\x80F@~\t\x8aS_\x0b\x90?'
p819
tp820
bsg36
((F0.0
F44.0
F0.015668382142857144
tp821
(F0.0
F20.0
F0.009811889999999998
tp822
(F0.0
F20.0
F0.0056583883333333335
tp823
(F0.0
F20.0
F0.00014583333333333332
tp824
(F0.0
F20.0
F0.00014583333333333332
tp825
(F0.0
F27.0
F0.004954663333333333
tp826
(F0.0
F44.0
F0.005320603571428571
tp827
(F0.0
F34.0
F0.0052067754545454545
tp828
(F0.0
F20.0
F1.4866666666666665e-06
tp829
(F0.0
F27.0
F0.0048522899999999996
tp830
(F0.0
F20.0
F1.355e-06
tp831
(F0.0
F27.0
F0.003704493333333334
tp832
(F0.0
F42.0
F0.003983121428571428
tp833
(F0.0
F20.0
F1.1250000000000002e-06
tp834
(F0.0
F27.0
F0.0007706
tp835
(F0.0
F27.0
F0.0007706
tp836
(F0.0
F30.0
F0.0027844479999999997
tp837
(F0.0
F42.0
F0.0031725521428571427
tp838
(F0.0
F20.0
F1.1249999999999998e-06
tp839
(F0.0
F45.0
F3.642666666666667e-06
tp840
tp841
sg58
g6
(g7
(I0
tp842
g9
tp843
Rp844
(I1
(I3
tp845
g16
I00
S'\x00\x00\x00\x00\x00\x00\x00\x00\xcd\xcc\xcc\xcc\xcc\xcc<@\xb3\x8d\xba\x92.mk?'
p846
tp847
bsg65
I17
sa(dp848
g5
g6
(g7
(I0
tp849
g9
tp850
Rp851
(I1
(I3
tp852
g16
I00
S'\x00\x00\x00\x00\x00\x00\x00\x00O<\xf0\xf1\xfe\xe1"@\x8b\'\x92\xdc\xff#p?'
p853
tp854
bsg21
I20
sg22
g6
(g7
(I0
tp855
g9
tp856
Rp857
(I1
(I3
tp858
g16
I00
S'\x00\x00\x00\x00\x00\x00\x00\x00\x00\x00\x00\x00\x00\x004@@\xab\xcc\x94\xd6\xdf\xb2>'
p859
tp860
bsg29
g6
(g7
(I0
tp861
g9
tp862
Rp863
(I1
(I3
tp864
g16
I00
S'\x00\x00\x00\x00\x00\x00\x00\x00\x00\x00\x00\x00\x00\x80F@~\t\x8aS_\x0b\x90?'
p865
tp866
bsg36
((F0.0
F44.0
F0.015668382142857144
tp867
(F0.0
F20.0
F0.009811889999999998
tp868
(F0.0
F20.0
F0.0056583883333333335
tp869
(F0.0
F44.0
F0.005320603571428571
tp870
(F0.0
F27.0
F0.004954663333333333
tp871
(F0.0
F34.0
F0.0052067754545454545
tp872
(F0.0
F20.0
F0.000842045
tp873
(F0.0
F27.0
F0.0048522899999999996
tp874
(F0.0
F20.0
F0.00014583333333333332
tp875
(F0.0
F20.0
F0.00014583333333333332
tp876
(F0.0
F27.0
F0.0007706
tp877
(F0.0
F27.0
F0.0007706
tp878
(F0.0
F42.0
F0.003983121428571428
tp879
(F0.0
F30.0
F0.0027844479999999997
tp880
(F0.0
F20.0
F1.6116666666666668e-06
tp881
(F0.0
F41.0
F0.0014108300000000003
tp882
(F0.0
F20.0
F1.4866666666666665e-06
tp883
(F0.0
F45.0
F3.642666666666667e-06
tp884
(F0.0
F20.0
F1.355e-06
tp885
(F0.0
F20.0
F1.1250000000000002e-06
tp886
tp887
sg58
g6
(g7
(I0
tp888
g9
tp889
Rp890
(I1
(I3
tp891
g16
I00
S'\x00\x00\x00\x00\x00\x00\x00\x00ffffff<@\xa9\xc8\x87\x81Z\x88i?'
p892
tp893
bsg65
I18
sa(dp894
g5
g6
(g7
(I0
tp895
g9
tp896
Rp897
(I1
(I3
tp898
g16
I00
S'\x00\x00\x00\x00\x00\x00\x00\x00S\xec\x83\x1c\xb1\x80"@\x81\xf7\'\x9b\xbbrp?'
p899
tp900
bsg21
I20
sg22
g6
(g7
(I0
tp901
g9
tp902
Rp903
(I1
(I3
tp904
g16
I00
S'\x00\x00\x00\x00\x00\x00\x00\x00\x00\x00\x00\x00\x00\x004@@\xab\xcc\x94\xd6\xdf\xb2>'
p905
tp906
bsg29
g6
(g7
(I0
tp907
g9
tp908
Rp909
(I1
(I3
tp910
g16
I00
S'\x00\x00\x00\x00\x00\x00\x00\x00\x00\x00\x00\x00\x00\x80F@~\t\x8aS_\x0b\x90?'
p911
tp912
bsg36
((F0.0
F44.0
F0.015668382142857144
tp913
(F0.0
F20.0
F0.009811889999999998
tp914
(F0.0
F27.0
F0.006923573333333334
tp915
(F0.0
F27.0
F0.006923573333333334
tp916
(F0.0
F20.0
F0.0056583883333333335
tp917
(F0.0
F44.0
F0.005320603571428571
tp918
(F0.0
F34.0
F0.0052067754545454545
tp919
(F0.0
F20.0
F0.000842045
tp920
(F0.0
F27.0
F0.0048522899999999996
tp921
(F0.0
F20.0
F0.00014583333333333332
tp922
(F0.0
F20.0
F0.00014583333333333332
tp923
(F0.0
F27.0
F0.0007706
tp924
(F0.0
F27.0
F0.0007706
tp925
(F0.0
F42.0
F0.003983121428571428
tp926
(F0.0
F30.0
F0.0027844479999999997
tp927
(F0.0
F20.0
F1.6116666666666668e-06
tp928
(F0.0
F41.0
F0.0014108300000000003
tp929
(F0.0
F20.0
F1.355e-06
tp930
(F0.0
F45.0
F3.642666666666667e-06
tp931
(F0.0
F20.0
F1.1250000000000002e-06
tp932
tp933
sg58
g6
(g7
(I0
tp934
g9
tp935
Rp936
(I1
(I3
tp937
g16
I00
S'\x00\x00\x00\x00\x00\x00\x00\x00\x00\x00\x00\x00\x00\xc0<@\xe5\xcfca\xa4,m?'
p938
tp939
bsg65
I19
sa(dp940
g5
g6
(g7
(I0
tp941
g9
tp942
Rp943
(I1
(I3
tp944
g16
I00
S'\x00\x00\x00\x00\x00\x00\x00\x00\xf9Md4\x83o!@\x13\xcb\xe9M\xdab\x81?'
p945
tp946
bsg21
I20
sg22
g6
(g7
(I0
tp947
g9
tp948
Rp949
(I1
(I3
tp950
g16
I00
S'\x00\x00\x00\x00\x00\x00\x00\x00\x00\x00\x00\x00\x00\x004@@\xab\xcc\x94\xd6\xdf\xb2>'
p951
tp952
bsg29
g6
(g7
(I0
tp953
g9
tp954
Rp955
(I1
(I3
tp956
g16
I00
S'\x00\x00\x00\x00\x00\x00\x00\x00\x00\x00\x00\x00\x00\x00F@\xaeF\xf8\x1a\xb3n\xa3?'
p957
tp958
bsg36
((F0.0
F20.0
F0.009811889999999998
tp959
(F0.0
F41.0
F0.03795394615384616
tp960
(F0.0
F27.0
F0.006923573333333334
tp961
(F0.0
F27.0
F0.006923573333333334
tp962
(F0.0
F20.0
F0.0056583883333333335
tp963
(F0.0
F44.0
F0.015668382142857144
tp964
(F0.0
F34.0
F0.0052067754545454545
tp965
(F0.0
F20.0
F0.000842045
tp966
(F0.0
F27.0
F0.0048522899999999996
tp967
(F0.0
F44.0
F0.005320603571428571
tp968
(F0.0
F20.0
F0.00014583333333333332
tp969
(F0.0
F20.0
F0.00014583333333333332
tp970
(F0.0
F27.0
F0.0007706
tp971
(F0.0
F27.0
F0.0007706
tp972
(F0.0
F42.0
F0.003983121428571428
tp973
(F0.0
F41.0
F0.0014108300000000003
tp974
(F0.0
F20.0
F1.355e-06
tp975
(F0.0
F29.0
F3.06e-06
tp976
(F0.0
F30.0
F0.00014911999999999998
tp977
(F0.0
F20.0
F1.1250000000000002e-06
tp978
tp979
sg58
g6
(g7
(I0
tp980
g9
tp981
Rp982
(I1
(I3
tp983
g16
I00
S'\x00\x00\x00\x00\x00\x00\x00\x00\x00\x00\x00\x00\x00\x00=@\xf3\x99\xf34\xeb\xd1u?'
p984
tp985
bsg65
I20
sa(dp986
g5
g6
(g7
(I0
tp987
g9
tp988
Rp989
(I1
(I3
tp990
g16
I00
S'\x00\x00\x00\x00\x00\x00\x00\x00V"d\x91\xf4\x0b!@Q\xe0{\xe8@}\x81?'
p991
tp992
bsg21
I20
sg22
g6
(g7
(I0
tp993
g9
tp994
Rp995
(I1
(I3
tp996
g16
I00
S'\x00\x00\x00\x00\x00\x00\x00\x00\x00\x00\x00\x00\x00\x004@\x00\x00\x00\x00\x00\x00\x00\x00'
p997
tp998
bsg29
g6
(g7
(I0
tp999
g9
tp1000
Rp1001
(I1
(I3
tp1002
g16
I00
S'\x00\x00\x00\x00\x00\x00\x00\x00\x00\x00\x00\x00\x00\x00F@\xaeF\xf8\x1a\xb3n\xa3?'
p1003
tp1004
bsg36
((F0.0
F27.0
F0.006923573333333334
tp1005
(F0.0
F27.0
F0.006923573333333334
tp1006
(F0.0
F20.0
F0.0056583883333333335
tp1007
(F0.0
F41.0
F0.03795394615384616
tp1008
(F0.0
F38.0
F0.006255916666666667
tp1009
(F0.0
F34.0
F0.0052067754545454545
tp1010
(F0.0
F20.0
F0.000842045
tp1011
(F0.0
F44.0
F0.015668382142857144
tp1012
(F0.0
F42.0
F0.003983121428571428
tp1013
(F0.0
F27.0
F0.0007706
tp1014
(F0.0
F27.0
F0.0007706
tp1015
(F0.0
F20.0
F0.00014583333333333332
tp1016
(F0.0
F20.0
F0.00014583333333333332
tp1017
(F0.0
F44.0
F0.005320603571428571
tp1018
(F0.0
F30.0
F0.00014911999999999998
tp1019
(F0.0
F20.0
F1.355e-06
tp1020
(F0.0
F29.0
F6.877777777777778e-07
tp1021
(F0.0
F29.0
F6.877777777777778e-07
tp1022
(F0.0
F20.0
F0.0
tp1023
(F0.0
F20.0
F0.0
tp1024
tp1025
sg58
g6
(g7
(I0
tp1026
g9
tp1027
Rp1028
(I1
(I3
tp1029
g16
I00
S'\x00\x00\x00\x00\x00\x00\x00\x0033333\xf3<@|\xc2\xfa\xdb\xf7\xces?'
p1030
tp1031
bsg65
I21
sa(dp1032
g5
g6
(g7
(I0
tp1033
g9
tp1034
Rp1035
(I1
(I3
tp1036
g16
I00
S'\x00\x00\x00\x00\x00\x00\x00\x00\x99\x1dA\xc4KP"@\xda\xf8L\xb0.s\x81?'
p1037
tp1038
bsg21
I20
sg22
g6
(g7
(I0
tp1039
g9
tp1040
Rp1041
(I1
(I3
tp1042
g16
I00
S'\x00\x00\x00\x00\x00\x00\x00\x00\x00\x00\x00\x00\x00\x004@\xc5\n\x80\xbaJ@\x95>'
p1043
tp1044
bsg29
g6
(g7
(I0
tp1045
g9
tp1046
Rp1047
(I1
(I3
tp1048
g16
I00
S'\x00\x00\x00\x00\x00\x00\x00\x00\x00\x00\x00\x00\x00\x00F@\xaeF\xf8\x1a\xb3n\xa3?'
p1049
tp1050
bsg36
((F0.0
F27.0
F0.006923573333333334
tp1051
(F0.0
F27.0
F0.006923573333333334
tp1052
(F0.0
F41.0
F0.03795394615384616
tp1053
(F0.0
F20.0
F0.0056583883333333335
tp1054
(F0.0
F38.0
F0.006255916666666667
tp1055
(F0.0
F44.0
F0.015668382142857144
tp1056
(F0.0
F20.0
F0.002230135
tp1057
(F0.0
F34.0
F0.0052067754545454545
tp1058
(F0.0
F44.0
F0.005320603571428571
tp1059
(F0.0
F20.0
F0.000842045
tp1060
(F0.0
F42.0
F0.003983121428571428
tp1061
(F0.0
F27.0
F0.00038502222222222223
tp1062
(F0.0
F20.0
F0.00014583333333333332
tp1063
(F0.0
F20.0
F0.00014583333333333332
tp1064
(F0.0
F30.0
F0.00014911999999999998
tp1065
(F0.0
F20.0
F1.355e-06
tp1066
(F0.0
F44.0
F4.604999999999999e-06
tp1067
(F0.0
F20.0
F3.166666666666667e-07
tp1068
(F0.0
F34.0
F4.4181818181818183e-07
tp1069
(F0.0
F29.0
F4.3666666666666674e-07
tp1070
tp1071
sg58
g6
(g7
(I0
tp1072
g9
tp1073
Rp1074
(I1
(I3
tp1075
g16
I00
S'\x00\x00\x00\x00\x00\x00\x00\x00\xcd\xcc\xcc\xcc\xcc\x0c>@\xd5`\xb1\xa7\x81\x07t?'
p1076
tp1077
bsg65
I22
sa(dp1078
g5
g6
(g7
(I0
tp1079
g9
tp1080
Rp1081
(I1
(I3
tp1082
g16
I00
S'\x00\x00\x00\x00\x00\x00\x00\x00\xd6\xa8\x15\xb5\xf4\xa1!@\x1fm\ts_\x95\x81?'
p1083
tp1084
bsg21
I20
sg22
g6
(g7
(I0
tp1085
g9
tp1086
Rp1087
(I1
(I3
tp1088
g16
I00
S'\x00\x00\x00\x00\x00\x00\x00\x00\x00\x00\x00\x00\x00\x004@\x00\x00\x00\x00\x00\x00\x00\x00'
p1089
tp1090
bsg29
g6
(g7
(I0
tp1091
g9
tp1092
Rp1093
(I1
(I3
tp1094
g16
I00
S'\x00\x00\x00\x00\x00\x00\x00\x00\x00\x00\x00\x00\x00\x00F@\xaeF\xf8\x1a\xb3n\xa3?'
p1095
tp1096
bsg36
((F0.0
F27.0
F0.006923573333333334
tp1097
(F0.0
F27.0
F0.006923573333333334
tp1098
(F0.0
F41.0
F0.03795394615384616
tp1099
(F0.0
F20.0
F0.0056583883333333335
tp1100
(F0.0
F38.0
F0.006255916666666667
tp1101
(F0.0
F44.0
F0.015668382142857144
tp1102
(F0.0
F20.0
F0.002230135
tp1103
(F0.0
F34.0
F0.0052067754545454545
tp1104
(F0.0
F20.0
F0.000842045
tp1105
(F0.0
F42.0
F0.003983121428571428
tp1106
(F0.0
F27.0
F0.00038502222222222223
tp1107
(F0.0
F20.0
F0.00014583333333333332
tp1108
(F0.0
F20.0
F0.00014583333333333332
tp1109
(F0.0
F30.0
F0.00014911999999999998
tp1110
(F0.0
F20.0
F1.355e-06
tp1111
(F0.0
F44.0
F4.604999999999999e-06
tp1112
(F0.0
F29.0
F4.3666666666666674e-07
tp1113
(F0.0
F34.0
F4.4181818181818183e-07
tp1114
(F0.0
F20.0
F3.166666666666667e-07
tp1115
(F0.0
F20.0
F0.0
tp1116
tp1117
sg58
g6
(g7
(I0
tp1118
g9
tp1119
Rp1120
(I1
(I3
tp1121
g16
I00
S'\x00\x00\x00\x00\x00\x00\x00\x00\x9a\x99\x99\x99\x99\xd9<@=\x85\x06\xb9\x8d\xf0r?'
p1122
tp1123
bsg65
I23
sa(dp1124
g5
g6
(g7
(I0
tp1125
g9
tp1126
Rp1127
(I1
(I3
tp1128
g16
I00
S'\x00\x00\x00\x00\x00\x00\x00\x00\xff]$\x8eP9"@\xee0\x8e\xc3k\x97\x81?'
p1129
tp1130
bsg21
I20
sg22
g6
(g7
(I0
tp1131
g9
tp1132
Rp1133
(I1
(I3
tp1134
g16
I00
S'\x00\x00\x00\x00\x00\x00\x00\x00\x00\x00\x00\x00\x00\x004@Y\xbe#i\x87Y\x93>'
p1135
tp1136
bsg29
g6
(g7
(I0
tp1137
g9
tp1138
Rp1139
(I1
(I3
tp1140
g16
I00
S'\x00\x00\x00\x00\x00\x00\x00\x00\x00\x00\x00\x00\x00\x00F@\xaeF\xf8\x1a\xb3n\xa3?'
p1141
tp1142
bsg36
((F0.0
F27.0
F0.006923573333333334
tp1143
(F0.0
F27.0
F0.006923573333333334
tp1144
(F0.0
F41.0
F0.03795394615384616
tp1145
(F0.0
F20.0
F0.0056583883333333335
tp1146
(F0.0
F38.0
F0.006255916666666667
tp1147
(F0.0
F44.0
F0.015668382142857144
tp1148
(F0.0
F20.0
F0.002230135
tp1149
(F0.0
F34.0
F0.0052067754545454545
tp1150
(F0.0
F20.0
F0.000842045
tp1151
(F0.0
F42.0
F0.003983121428571428
tp1152
(F0.0
F27.0
F0.00038502222222222223
tp1153
(F0.0
F20.0
F0.00014583333333333332
tp1154
(F0.0
F20.0
F0.00014583333333333332
tp1155
(F0.0
F20.0
F1.355e-06
tp1156
(F0.0
F44.0
F4.604999999999999e-06
tp1157
(F0.0
F20.0
F2.883333333333333e-07
tp1158
(F0.0
F29.0
F4.3666666666666674e-07
tp1159
(F0.0
F30.0
F6.84e-07
tp1160
(F0.0
F30.0
F6.84e-07
tp1161
(F0.0
F44.0
F5.978571428571429e-07
tp1162
tp1163
sg58
g6
(g7
(I0
tp1164
g9
tp1165
Rp1166
(I1
(I3
tp1167
g16
I00
S'\x00\x00\x00\x00\x00\x00\x00\x00\x9a\x99\x99\x99\x99\xd9=@\xf2\xf4\xcfW\xd0\xe8r?'
p1168
tp1169
bsg65
I24
sa(dp1170
g5
g6
(g7
(I0
tp1171
g9
tp1172
Rp1173
(I1
(I3
tp1174
g16
I00
S'\x00\x00\x00\x00\x00\x00\x00\x00|C\xe9\xb8kh\x1e@\xe7\xe4\xb4\xd8[%p?'
p1175
tp1176
bsg21
I20
sg22
g6
(g7
(I0
tp1177
g9
tp1178
Rp1179
(I1
(I3
tp1180
g16
I00
S'\x00\x00\x00\x00\x00\x00\x00\x00\x00\x00\x00\x00\x00\x004@\x00\x00\x00\x00\x00\x00\x00\x00'
p1181
tp1182
bsg29
g6
(g7
(I0
tp1183
g9
tp1184
Rp1185
(I1
(I3
tp1186
g16
I00
S'\x00\x00\x00\x00\x00\x00\x00\x00\x00\x00\x00\x00\x00\x00F@~\t\x8aS_\x0b\x90?'
p1187
tp1188
bsg36
((F0.0
F27.0
F0.006923573333333334
tp1189
(F0.0
F27.0
F0.006923573333333334
tp1190
(F0.0
F44.0
F0.015668382142857144
tp1191
(F0.0
F20.0
F0.002230135
tp1192
(F0.0
F38.0
F0.006255916666666667
tp1193
(F0.0
F34.0
F0.0052067754545454545
tp1194
(F0.0
F27.0
F0.0047189599999999995
tp1195
(F0.0
F20.0
F0.000842045
tp1196
(F0.0
F42.0
F0.003983121428571428
tp1197
(F0.0
F20.0
F0.00014583333333333332
tp1198
(F0.0
F20.0
F0.00014583333333333332
tp1199
(F0.0
F20.0
F1.355e-06
tp1200
(F0.0
F29.0
F4.3666666666666674e-07
tp1201
(F0.0
F20.0
F2.883333333333333e-07
tp1202
(F0.0
F30.0
F1.0220000000000001e-06
tp1203
(F0.0
F30.0
F6.84e-07
tp1204
(F0.0
F30.0
F6.84e-07
tp1205
(F0.0
F20.0
F0.0
tp1206
(F0.0
F20.0
F0.0
tp1207
(F0.0
F20.0
F0.0
tp1208
tp1209
sg58
g6
(g7
(I0
tp1210
g9
tp1211
Rp1212
(I1
(I3
tp1213
g16
I00
S'\x00\x00\x00\x00\x00\x00\x00\x00fffff\xe6:@\x9am\x1a\x06\x8d\xbae?'
p1214
tp1215
bsg65
I25
sa(dp1216
g5
g6
(g7
(I0
tp1217
g9
tp1218
Rp1219
(I1
(I3
tp1220
g16
I00
S'\x00\x00\x00\x00\x00\x00\x00\x00\xb0\xa8fX\x96\xaa\x1c@\xd8\xc2\x9f\xc9A=n?'
p1221
tp1222
bsg21
I20
sg22
g6
(g7
(I0
tp1223
g9
tp1224
Rp1225
(I1
(I3
tp1226
g16
I00
S'\x00\x00\x00\x00\x00\x00\x00\x00\x00\x00\x00\x00\x00\x004@\x00\x00\x00\x00\x00\x00\x00\x00'
p1227
tp1228
bsg29
g6
(g7
(I0
tp1229
g9
tp1230
Rp1231
(I1
(I3
tp1232
g16
I00
S'\x00\x00\x00\x00\x00\x00\x00\x00\x00\x00\x00\x00\x00\x00F@~\t\x8aS_\x0b\x90?'
p1233
tp1234
bsg36
((F0.0
F44.0
F0.015668382142857144
tp1235
(F0.0
F27.0
F0.006923573333333334
tp1236
(F0.0
F27.0
F0.006923573333333334
tp1237
(F0.0
F20.0
F0.004550476666666667
tp1238
(F0.0
F27.0
F0.0047189599999999995
tp1239
(F0.0
F20.0
F0.004018445
tp1240
(F0.0
F20.0
F0.0037734166666666667
tp1241
(F0.0
F20.0
F0.0037734166666666667
tp1242
(F0.0
F42.0
F0.003983121428571428
tp1243
(F0.0
F20.0
F0.002230135
tp1244
(F0.0
F20.0
F0.0013536616666666665
tp1245
(F0.0
F30.0
F0.001142239
tp1246
(F0.0
F20.0
F0.000842045
tp1247
(F0.0
F20.0
F0.00014583333333333332
tp1248
(F0.0
F20.0
F0.00014583333333333332
tp1249
(F0.0
F20.0
F1.355e-06
tp1250
(F0.0
F29.0
F7.88888888888889e-07
tp1251
(F0.0
F30.0
F1.0220000000000001e-06
tp1252
(F0.0
F20.0
F2.883333333333333e-07
tp1253
(F0.0
F20.0
F0.0
tp1254
tp1255
sg58
g6
(g7
(I0
tp1256
g9
tp1257
Rp1258
(I1
(I3
tp1259
g16
I00
S'\x00\x00\x00\x00\x00\x00\x00\x00\xcd\xcc\xcc\xcc\xcc\xcc8@\xe5\xe6"I\x11\xa8h?'
p1260
tp1261
bsg65
I26
sa(dp1262
g5
g6
(g7
(I0
tp1263
g9
tp1264
Rp1265
(I1
(I3
tp1266
g16
I00
S'\x00\x00\x00\x00\x00\x00\x00\x00Eg\xfawh\xaf\x1c@\xa0"x\xf8\x85<n?'
p1267
tp1268
bsg21
I20
sg22
g6
(g7
(I0
tp1269
g9
tp1270
Rp1271
(I1
(I3
tp1272
g16
I00
S'\x00\x00\x00\x00\x00\x00\x00\x00\x00\x00\x00\x00\x00\x004@\xf0q\xc7\x17\xc4r\xb1>'
p1273
tp1274
bsg29
g6
(g7
(I0
tp1275
g9
tp1276
Rp1277
(I1
(I3
tp1278
g16
I00
S'\x00\x00\x00\x00\x00\x00\x00\x00\x00\x00\x00\x00\x00\x00F@~\t\x8aS_\x0b\x90?'
p1279
tp1280
bsg36
((F0.0
F44.0
F0.015668382142857144
tp1281
(F0.0
F27.0
F0.006923573333333334
tp1282
(F0.0
F27.0
F0.006923573333333334
tp1283
(F0.0
F20.0
F0.004550476666666667
tp1284
(F0.0
F27.0
F0.0047189599999999995
tp1285
(F0.0
F20.0
F0.004018445
tp1286
(F0.0
F42.0
F0.003983121428571428
tp1287
(F0.0
F20.0
F0.0037734166666666667
tp1288
(F0.0
F20.0
F0.0037734166666666667
tp1289
(F0.0
F20.0
F0.002230135
tp1290
(F0.0
F20.0
F0.0013536616666666665
tp1291
(F0.0
F30.0
F0.001142239
tp1292
(F0.0
F20.0
F0.000842045
tp1293
(F0.0
F20.0
F0.00014583333333333332
tp1294
(F0.0
F20.0
F0.00014583333333333332
tp1295
(F0.0
F20.0
F1.4949999999999999e-06
tp1296
(F0.0
F30.0
F6.769e-06
tp1297
(F0.0
F20.0
F1.3833333333333334e-06
tp1298
(F0.0
F20.0
F1.355e-06
tp1299
(F0.0
F20.0
F1.0400000000000002e-06
tp1300
tp1301
sg58
g6
(g7
(I0
tp1302
g9
tp1303
Rp1304
(I1
(I3
tp1305
g16
I00
S'\x00\x00\x00\x00\x00\x00\x00\x00\x9a\x99\x99\x99\x99Y8@\xdf\xbe/\xd2\xf7\xa8h?'
p1306
tp1307
bsg65
I27
sa(dp1308
g5
g6
(g7
(I0
tp1309
g9
tp1310
Rp1311
(I1
(I3
tp1312
g16
I00
S'\x00\x00\x00\x00\x00\x00\x00\x00Dg\xfawh\xaf\x1c@a\xcb\xb0\xab;\xb1p?'
p1313
tp1314
bsg21
I20
sg22
g6
(g7
(I0
tp1315
g9
tp1316
Rp1317
(I1
(I3
tp1318
g16
I00
S'\x00\x00\x00\x00\x00\x00\x00\x00\x00\x00\x00\x00\x00\x004@qdqA\xae\xbb\xb6>'
p1319
tp1320
bsg29
g6
(g7
(I0
tp1321
g9
tp1322
Rp1323
(I1
(I3
tp1324
g16
I00
S'\x00\x00\x00\x00\x00\x00\x00\x00\x00\x00\x00\x00\x00\x00F@~\t\x8aS_\x0b\x90?'
p1325
tp1326
bsg36
((F0.0
F20.0
F0.010429933333333334
tp1327
(F0.0
F44.0
F0.015668382142857144
tp1328
(F0.0
F20.0
F0.008183639999999999
tp1329
(F0.0
F20.0
F0.008183639999999999
tp1330
(F0.0
F27.0
F0.006923573333333334
tp1331
(F0.0
F27.0
F0.006923573333333334
tp1332
(F0.0
F20.0
F0.004550476666666667
tp1333
(F0.0
F27.0
F0.0047189599999999995
tp1334
(F0.0
F20.0
F0.004018445
tp1335
(F0.0
F42.0
F0.003983121428571428
tp1336
(F0.0
F20.0
F0.0037734166666666667
tp1337
(F0.0
F20.0
F0.0037734166666666667
tp1338
(F0.0
F20.0
F0.0013536616666666665
tp1339
(F0.0
F30.0
F0.001142239
tp1340
(F0.0
F20.0
F0.000842045
tp1341
(F0.0
F20.0
F0.00014583333333333332
tp1342
(F0.0
F20.0
F0.00014583333333333332
tp1343
(F0.0
F20.0
F1.3833333333333334e-06
tp1344
(F0.0
F30.0
F6.769e-06
tp1345
(F0.0
F20.0
F1.355e-06
tp1346
tp1347
sg58
g6
(g7
(I0
tp1348
g9
tp1349
Rp1350
(I1
(I3
tp1351
g16
I00
S'\x00\x00\x00\x00\x00\x00\x00\x00\x9a\x99\x99\x99\x99Y8@\xc2\xadL\xa1_\\q?'
p1352
tp1353
bsg65
I28
sa(dp1354
g5
g6
(g7
(I0
tp1355
g9
tp1356
Rp1357
(I1
(I3
tp1358
g16
I00
S'\x00\x00\x00\x00\x00\x00\x00\x0085\xf0\x9c\xe5\xf2!@]l\x91\xa0X\xb7q?'
p1359
tp1360
bsg21
I20
sg22
g6
(g7
(I0
tp1361
g9
tp1362
Rp1363
(I1
(I3
tp1364
g16
I00
S'\x00\x00\x00\x00\x00\x00\x00\x00\x00\x00\x00\x00\x00\x004@L\xd7<\xdcH\xb8\xb4>'
p1365
tp1366
bsg29
g6
(g7
(I0
tp1367
g9
tp1368
Rp1369
(I1
(I3
tp1370
g16
I00
S'\x00\x00\x00\x00\x00\x00\x00\x00\x00\x00\x00\x00\x00\x00F@~\t\x8aS_\x0b\x90?'
p1371
tp1372
bsg36
((F0.0
F44.0
F0.015668382142857144
tp1373
(F0.0
F20.0
F0.010429933333333334
tp1374
(F0.0
F20.0
F0.008183639999999999
tp1375
(F0.0
F20.0
F0.008183639999999999
tp1376
(F0.0
F42.0
F0.0071574921428571425
tp1377
(F0.0
F42.0
F0.0071574921428571425
tp1378
(F0.0
F27.0
F0.0047189599999999995
tp1379
(F0.0
F20.0
F0.0037734166666666667
tp1380
(F0.0
F20.0
F0.0037734166666666667
tp1381
(F0.0
F20.0
F0.0013536616666666665
tp1382
(F0.0
F40.0
F0.002642648461538462
tp1383
(F0.0
F30.0
F0.001142239
tp1384
(F0.0
F20.0
F0.00014583333333333332
tp1385
(F0.0
F20.0
F0.00014583333333333332
tp1386
(F0.0
F20.0
F1.4549999999999998e-06
tp1387
(F0.0
F30.0
F6.769e-06
tp1388
(F0.0
F20.0
F1.3833333333333334e-06
tp1389
(F0.0
F37.0
F1.4375000000000002e-06
tp1390
(F0.0
F20.0
F1.355e-06
tp1391
(F0.0
F20.0
F1.235e-06
tp1392
tp1393
sg58
g6
(g7
(I0
tp1394
g9
tp1395
Rp1396
(I1
(I3
tp1397
g16
I00
S'\x00\x00\x00\x00\x00\x00\x00\x00\x9a\x99\x99\x99\x99\x99:@bL\x9f\xb7\xdd\x82n?'
p1398
tp1399
bsg65
I29
sa(dp1400
g5
g6
(g7
(I0
tp1401
g9
tp1402
Rp1403
(I1
(I3
tp1404
g16
I00
S'\x00\x00\x00\x00\x00\x00\x00\x00\xfd\x0e\x88j[\x14!@)F\xe9\x88\xb4`q?'
p1405
tp1406
bsg21
I20
sg22
g6
(g7
(I0
tp1407
g9
tp1408
Rp1409
(I1
(I3
tp1410
g16
I00
S'\x00\x00\x00\x00\x00\x00\x00\x00\x00\x00\x00\x00\x00\x004@e/\x1dk-i\xb8>'
p1411
tp1412
bsg29
g6
(g7
(I0
tp1413
g9
tp1414
Rp1415
(I1
(I3
tp1416
g16
I00
S'\x00\x00\x00\x00\x00\x00\x00\x00\x00\x00\x00\x00\x00\x00F@~\t\x8aS_\x0b\x90?'
p1417
tp1418
bsg36
((F0.0
F44.0
F0.015668382142857144
tp1419
(F0.0
F20.0
F0.010429933333333334
tp1420
(F0.0
F20.0
F0.008183639999999999
tp1421
(F0.0
F20.0
F0.008183639999999999
tp1422
(F0.0
F20.0
F0.0037734166666666667
tp1423
(F0.0
F20.0
F0.0037734166666666667
tp1424
(F0.0
F42.0
F0.0071574921428571425
tp1425
(F0.0
F42.0
F0.0071574921428571425
tp1426
(F0.0
F27.0
F0.0047189599999999995
tp1427
(F0.0
F20.0
F0.0013536616666666665
tp1428
(F0.0
F30.0
F0.004641772
tp1429
(F0.0
F20.0
F0.00014583333333333332
tp1430
(F0.0
F20.0
F0.00014583333333333332
tp1431
(F0.0
F30.0
F0.001142239
tp1432
(F0.0
F40.0
F0.002642648461538462
tp1433
(F0.0
F21.0
F3.551428571428571e-06
tp1434
(F0.0
F20.0
F3.058333333333334e-06
tp1435
(F0.0
F27.0
F5.233333333333333e-06
tp1436
(F0.0
F30.0
F6.769e-06
tp1437
(F0.0
F20.0
F1.4549999999999998e-06
tp1438
tp1439
sg58
g6
(g7
(I0
tp1440
g9
tp1441
Rp1442
(I1
(I3
tp1443
g16
I00
S'\x00\x00\x00\x00\x00\x00\x00\x00fffff\xa6:@\x00\x0b\x0b\x00"5p?'
p1444
tp1445
bsg65
I30
satp1446
Rp1447
(dp1448
S'log_header'
p1449
I01
sS'header'
p1450
(lp1451
g65
ag21
ag58
ag5
ag22
ag29
ag36
asS'columns_len'
p1452
(lp1453
I3
aI6
aI46
aI46
aI46
aI46
aI711
asS'buffindex'
p1454
I31
sS'chapters'
p1455
ccollections
defaultdict
p1456
(g1
tp1457
Rp1458
sb.